target datalayout = "e-m:e-p270:32:32-p271:32:32-p272:64:64-i64:64-i128:128-f80:128-n8:16:32:64-S128"
target triple = "x86_64-pc-linux-gnu"

%struct.expert_field = type { i32, i32 }

@hf_biev_assigned_number = internal global i32 0, align 4
@hf_biev_value = internal global i32 0, align 4
@ei_biev_assigned_number = internal global %struct.expert_field zeroinitializer, align 4
@ei_biev_assigned_number_no = internal global %struct.expert_field zeroinitializer, align 4

; Function Attrs: alwaysinline nounwind
define internal ptr @memcpy.inline(ptr noalias %0, ptr noalias %1, i64 %2) #5 {
  %4 = alloca ptr, align 8
  %5 = alloca ptr, align 8
  %6 = alloca i64, align 8
  store ptr %0, ptr %4, align 8
  store ptr %1, ptr %5, align 8
  store i64 %2, ptr %6, align 8
  %7 = load ptr, ptr %4, align 8
  %8 = load ptr, ptr %5, align 8
  %9 = load i64, ptr %6, align 8
  %10 = load ptr, ptr %4, align 8
  %11 = call i64 @llvm.objectsize.i64.p0(ptr %10, i1 false, i1 true, i1 true)
  %12 = call ptr @__memcpy_chk(ptr noundef %7, ptr noundef %8, i64 noundef %9, i64 noundef %11) #11
  ret ptr %12
}

; Function Attrs: null_pointer_is_valid sspstrong uwtable
define internal i32 @get_uint_parameter(ptr noundef %0, i32 noundef %1) #0 {
  %3 = alloca ptr, align 8
  %4 = alloca i32, align 4
  %5 = alloca i32, align 4
  %6 = alloca ptr, align 8
  store ptr %0, ptr %3, align 8
  store i32 %1, ptr %4, align 4
  call void @llvm.lifetime.start.p0(i64 4, ptr %5) #11
  call void @llvm.lifetime.start.p0(i64 8, ptr %6) #11
  %7 = call ptr @wmem_packet_scope()
  %8 = load i32, ptr %4, align 4
  %9 = add i32 %8, 1
  %10 = sext i32 %9 to i64
  %11 = call noalias ptr @wmem_alloc(ptr noundef %7, i64 noundef %10) #12
  store ptr %11, ptr %6, align 8
  %12 = load ptr, ptr %6, align 8
  %13 = load ptr, ptr %3, align 8
  %14 = load i32, ptr %4, align 4
  %15 = sext i32 %14 to i64
  %16 = call ptr @memcpy.inline(ptr noundef %12, ptr noundef %13, i64 noundef %15) #11
  %17 = load ptr, ptr %6, align 8
  %18 = load i32, ptr %4, align 4
  %19 = sext i32 %18 to i64
  %20 = getelementptr i8, ptr %17, i64 %19
  store i8 0, ptr %20, align 1
  %21 = load ptr, ptr %6, align 8
  %22 = call i64 @g_ascii_strtoull(ptr noundef %21, ptr noundef null, i32 noundef 10)
  %23 = trunc i64 %22 to i32
  store i32 %23, ptr %5, align 4
  %24 = load i32, ptr %5, align 4
  call void @llvm.lifetime.end.p0(i64 8, ptr %6) #11
  call void @llvm.lifetime.end.p0(i64 4, ptr %5) #11
  ret i32 %24
}

; Function Attrs: nounwind null_pointer_is_valid sspstrong uwtable
define internal zeroext i1 @check_biev(i32 noundef %0, i16 noundef zeroext %1) #10 {
  %3 = alloca i1, align 1
  %4 = alloca i32, align 4
  %5 = alloca i16, align 2
  store i32 %0, ptr %4, align 4
  store i16 %1, ptr %5, align 2
  %6 = load i32, ptr %4, align 4
  %7 = icmp eq i32 %6, 2
  br i1 %7, label %8, label %13

8:                                                ; preds = %2
  %9 = load i16, ptr %5, align 2
  %10 = zext i16 %9 to i32
  %11 = icmp eq i32 %10, 61
  br i1 %11, label %12, label %13

12:                                               ; preds = %8
  store i1 true, ptr %3, align 1
  br label %14

13:                                               ; preds = %8, %2
  store i1 false, ptr %3, align 1
  br label %14

14:                                               ; preds = %13, %12
  %15 = load i1, ptr %3, align 1
  ret i1 %15
}

; Function Attrs: null_pointer_is_valid sspstrong uwtable
define internal zeroext i1 @dissect_biev_parameter(ptr noundef %0, ptr noundef %1, ptr noundef %2, i32 noundef %3, i32 noundef %4, i16 noundef zeroext %5, ptr noundef %6, i32 noundef %7, i32 noundef %8, ptr noundef %9) #0 {
  %11 = alloca i1, align 1
  %12 = alloca ptr, align 8
  %13 = alloca ptr, align 8
  %14 = alloca ptr, align 8
  %15 = alloca i32, align 4
  %16 = alloca i32, align 4
  %17 = alloca i16, align 2
  %18 = alloca ptr, align 8
  %19 = alloca i32, align 4
  %20 = alloca i32, align 4
  %21 = alloca ptr, align 8
  %22 = alloca ptr, align 8
  %23 = alloca i32, align 4
  %24 = alloca i32, align 4
  store ptr %0, ptr %12, align 8
  store ptr %1, ptr %13, align 8
  store ptr %2, ptr %14, align 8
  store i32 %3, ptr %15, align 4
  store i32 %4, ptr %16, align 4
  store i16 %5, ptr %17, align 2
  store ptr %6, ptr %18, align 8
  store i32 %7, ptr %19, align 4
  store i32 %8, ptr %20, align 4
  store ptr %9, ptr %21, align 8
  call void @llvm.lifetime.start.p0(i64 8, ptr %22) #11
  call void @llvm.lifetime.start.p0(i64 4, ptr %23) #11
  %25 = load i32, ptr %16, align 4
  %26 = load i16, ptr %17, align 2
  %27 = call zeroext i1 @check_biev(i32 noundef %25, i16 noundef zeroext %26)
  br i1 %27, label %29, label %28

28:                                               ; preds = %10
  store i1 false, ptr %11, align 1
  store i32 1, ptr %24, align 4
  br label %75

29:                                               ; preds = %10
  %30 = load i32, ptr %19, align 4
  %31 = icmp eq i32 %30, 0
  br i1 %31, label %32, label %58

32:                                               ; preds = %29
  %33 = load ptr, ptr %18, align 8
  %34 = load i32, ptr %20, align 4
  %35 = call i32 @get_uint_parameter(ptr noundef %33, i32 noundef %34)
  store i32 %35, ptr %23, align 4
  %36 = load ptr, ptr %14, align 8
  %37 = load i32, ptr @hf_biev_assigned_number, align 4
  %38 = load ptr, ptr %12, align 8
  %39 = load i32, ptr %15, align 4
  %40 = load i32, ptr %20, align 4
  %41 = load i32, ptr %23, align 4
  %42 = call ptr @proto_tree_add_uint(ptr noundef %36, i32 noundef %37, ptr noundef %38, i32 noundef %39, i32 noundef %40, i32 noundef %41)
  store ptr %42, ptr %22, align 8
  %43 = load i32, ptr %23, align 4
  %44 = icmp ugt i32 %43, 65535
  br i1 %44, label %45, label %49

45:                                               ; preds = %32
  %46 = load ptr, ptr %13, align 8
  %47 = load ptr, ptr %22, align 8
  %48 = call ptr @expert_add_info(ptr noundef %46, ptr noundef %47, ptr noundef @ei_biev_assigned_number)
  br label %57

49:                                               ; preds = %32
  %50 = load i32, ptr %23, align 4
  %51 = icmp ugt i32 %50, 2
  br i1 %51, label %52, label %56

52:                                               ; preds = %49
  %53 = load ptr, ptr %13, align 8
  %54 = load ptr, ptr %22, align 8
  %55 = call ptr @expert_add_info(ptr noundef %53, ptr noundef %54, ptr noundef @ei_biev_assigned_number_no)
  br label %56

56:                                               ; preds = %52, %49
  br label %57

57:                                               ; preds = %56, %45
  br label %74

58:                                               ; preds = %29
  %59 = load i32, ptr %19, align 4
  %60 = icmp eq i32 %59, 1
  br i1 %60, label %61, label %72

61:                                               ; preds = %58
  %62 = load ptr, ptr %18, align 8
  %63 = load i32, ptr %20, align 4
  %64 = call i32 @get_uint_parameter(ptr noundef %62, i32 noundef %63)
  store i32 %64, ptr %23, align 4
  %65 = load ptr, ptr %14, align 8
  %66 = load i32, ptr @hf_biev_value, align 4
  %67 = load ptr, ptr %12, align 8
  %68 = load i32, ptr %15, align 4
  %69 = load i32, ptr %20, align 4
  %70 = load i32, ptr %23, align 4
  %71 = call ptr @proto_tree_add_uint(ptr noundef %65, i32 noundef %66, ptr noundef %67, i32 noundef %68, i32 noundef %69, i32 noundef %70)
  br label %73

72:                                               ; preds = %58
  store i1 false, ptr %11, align 1
  store i32 1, ptr %24, align 4
  br label %75

73:                                               ; preds = %61
  br label %74

74:                                               ; preds = %73, %57
  store i1 true, ptr %11, align 1
  store i32 1, ptr %24, align 4
  br label %75

75:                                               ; preds = %74, %72, %28
  call void @llvm.lifetime.end.p0(i64 4, ptr %23) #11
  call void @llvm.lifetime.end.p0(i64 8, ptr %22) #11
  %76 = load i1, ptr %11, align 1
  ret i1 %76
}