; Function Attrs: null_pointer_is_valid sspstrong uwtable
define internal noundef zeroext i1 @dissect_biev_parameter(ptr noundef %0, ptr noundef %1, ptr noundef %2, i32 noundef %3, i32 noundef %4, i16 noundef zeroext %5, ptr noundef readonly captures(none) %6, i32 noundef %7, i32 noundef %8, ptr readnone captures(none) %9) #0 {
  %11 = icmp eq i32 %4, 2
  %12 = icmp eq i16 %5, 61
  %or.cond.i = and i1 %11, %12
  br i1 %or.cond.i, label %13, label %47

13:                                               ; preds = %10
  switch i32 %7, label %47 [
    i32 0, label %14
    i32 1, label %34
  ]

14:                                               ; preds = %13
  %15 = tail call ptr @wmem_packet_scope()
  %16 = add i32 %8, 1
  %17 = sext i32 %16 to i64
  %18 = tail call noalias ptr @wmem_alloc(ptr noundef %15, i64 noundef %17) #11
  %19 = sext i32 %8 to i64
  %20 = icmp ne i32 %16, -1
  tail call void @llvm.assume(i1 %20)
  %21 = tail call ptr @__memcpy_chk(ptr noundef %18, ptr noundef readonly %6, i64 noundef range(i64 -2147483648, 4294967296) %19, i64 noundef %17) #10, !alias.scope !53
  %22 = getelementptr i8, ptr %18, i64 %19
  store i8 0, ptr %22, align 1
  %23 = tail call i64 @g_ascii_strtoull(ptr noundef %18, ptr noundef null, i32 noundef 10)
  %24 = trunc i64 %23 to i32
  %25 = load i32, ptr @hf_biev_assigned_number, align 4
  %26 = tail call ptr @proto_tree_add_uint(ptr noundef %2, i32 noundef %25, ptr noundef %0, i32 noundef %3, i32 noundef %8, i32 noundef %24)
  %27 = icmp ugt i32 %24, 65535
  br i1 %27, label %28, label %30

28:                                               ; preds = %14
  %29 = tail call ptr @expert_add_info(ptr noundef %1, ptr noundef %26, ptr noundef nonnull @ei_biev_assigned_number)
  br label %47

30:                                               ; preds = %14
  %31 = icmp samesign ugt i32 %24, 2
  br i1 %31, label %32, label %47

32:                                               ; preds = %30
  %33 = tail call ptr @expert_add_info(ptr noundef %1, ptr noundef %26, ptr noundef nonnull @ei_biev_assigned_number_no)
  br label %47

34:                                               ; preds = %13
  %35 = tail call ptr @wmem_packet_scope()
  %36 = add i32 %8, 1
  %37 = sext i32 %36 to i64
  %38 = tail call noalias ptr @wmem_alloc(ptr noundef %35, i64 noundef %37) #11
  %39 = sext i32 %8 to i64
  %40 = icmp ne i32 %36, -1
  tail call void @llvm.assume(i1 %40)
  %41 = tail call ptr @__memcpy_chk(ptr noundef %38, ptr noundef readonly %6, i64 noundef range(i64 -2147483648, 4294967296) %39, i64 noundef %37) #10, !alias.scope !57
  %42 = getelementptr i8, ptr %38, i64 %39
  store i8 0, ptr %42, align 1
  %43 = tail call i64 @g_ascii_strtoull(ptr noundef %38, ptr noundef null, i32 noundef 10)
  %44 = trunc i64 %43 to i32
  %45 = load i32, ptr @hf_biev_value, align 4
  %46 = tail call ptr @proto_tree_add_uint(ptr noundef %2, i32 noundef %45, ptr noundef %0, i32 noundef %3, i32 noundef %8, i32 noundef %44)
  br label %47

47:                                               ; preds = %34, %30, %32, %28, %13, %10
  %.0 = phi i1 [ false, %10 ], [ false, %13 ], [ true, %28 ], [ true, %32 ], [ true, %30 ], [ true, %34 ]
  ret i1 %.0
}